; Function Attrs: nounwind uwtable
define dso_local void @slurmdb_destroy_tres_rec(ptr noundef %0) #0 {
  %2 = alloca ptr, align 8
  call void @llvm.lifetime.start.p0(i64 8, ptr nonnull %2) #19
  store ptr %0, ptr %2, align 8
  %.not = icmp eq ptr %0, null
  br i1 %.not, label %5, label %slurmdb_destroy_tres_rec_noalloc.exit

slurmdb_destroy_tres_rec_noalloc.exit:            ; preds = %1
  %3 = getelementptr inbounds nuw i8, ptr %0, i64 32
  tail call void @slurm_xfree(ptr noundef nonnull %3) #19
  %4 = getelementptr inbounds nuw i8, ptr %0, i64 40
  tail call void @slurm_xfree(ptr noundef nonnull %4) #19
  call void @slurm_xfree(ptr noundef nonnull %2) #19
  br label %5

5:                                                ; preds = %slurmdb_destroy_tres_rec_noalloc.exit, %1
  call void @llvm.lifetime.end.p0(i64 8, ptr nonnull %2) #19
  ret void
}